target datalayout = "e-m:e-p270:32:32-p271:32:32-p272:64:64-i64:64-i128:128-f80:128-n8:16:32:64-S128"
target triple = "x86_64-pc-linux-gnu"

%"class.icu_77::CollationIterator::CEBuffer" = type { i32, %"class.icu_77::MaybeStackArray.0" }
%"class.icu_77::MaybeStackArray.0" = type { ptr, i32, i8, [40 x i64] }
%"class.icu_77::CollationIterator" = type <{ %"class.icu_77::UObject", ptr, ptr, %"class.icu_77::CollationIterator::CEBuffer", i32, [4 x i8], ptr, i32, i8, [3 x i8] }>
%"class.icu_77::UObject" = type { ptr }
%"struct.icu_77::CollationData" = type <{ ptr, ptr, ptr, ptr, ptr, ptr, ptr, i32, i32, i32, i32, ptr, ptr, ptr, i32, i32, ptr, ptr, i32, [4 x i8], ptr, i32, [4 x i8] }>
%struct.UTrie2 = type { ptr, ptr, ptr, i32, i32, i16, i16, i32, i32, i32, i32, ptr, i32, i8, i8, i16, ptr }

; Function Attrs: mustprogress nounwind uwtable
define linkonce_odr noundef i32 @_ZNK6icu_7713CollationData7getCE32Ei(ptr noundef nonnull align 8 dereferenceable(140) %0, i32 noundef %1) #0 comdat align 2 {
  %3 = alloca ptr, align 8
  %4 = alloca i32, align 4
  store ptr %0, ptr %3, align 8, !tbaa !75
  store i32 %1, ptr %4, align 4, !tbaa !14
  %5 = load ptr, ptr %3, align 8
  %6 = getelementptr inbounds nuw %"struct.icu_77::CollationData", ptr %5, i32 0, i32 0
  %7 = load ptr, ptr %6, align 8, !tbaa !76
  %8 = getelementptr inbounds nuw %struct.UTrie2, ptr %7, i32 0, i32 2
  %9 = load ptr, ptr %8, align 8, !tbaa !77
  %10 = load i32, ptr %4, align 4, !tbaa !14
  %11 = icmp ult i32 %10, 55296
  br i1 %11, label %12, label %28

12:                                               ; preds = %2
  %13 = getelementptr inbounds nuw %"struct.icu_77::CollationData", ptr %5, i32 0, i32 0
  %14 = load ptr, ptr %13, align 8, !tbaa !76
  %15 = getelementptr inbounds nuw %struct.UTrie2, ptr %14, i32 0, i32 0
  %16 = load ptr, ptr %15, align 8, !tbaa !81
  %17 = load i32, ptr %4, align 4, !tbaa !14
  %18 = ashr i32 %17, 5
  %19 = add nsw i32 0, %18
  %20 = sext i32 %19 to i64
  %21 = getelementptr inbounds i16, ptr %16, i64 %20
  %22 = load i16, ptr %21, align 2, !tbaa !82
  %23 = zext i16 %22 to i32
  %24 = shl i32 %23, 2
  %25 = load i32, ptr %4, align 4, !tbaa !14
  %26 = and i32 %25, 31
  %27 = add nsw i32 %24, %26
  br label %100

28:                                               ; preds = %2
  %29 = load i32, ptr %4, align 4, !tbaa !14
  %30 = icmp ule i32 %29, 65535
  br i1 %30, label %31, label %50

31:                                               ; preds = %28
  %32 = getelementptr inbounds nuw %"struct.icu_77::CollationData", ptr %5, i32 0, i32 0
  %33 = load ptr, ptr %32, align 8, !tbaa !76
  %34 = getelementptr inbounds nuw %struct.UTrie2, ptr %33, i32 0, i32 0
  %35 = load ptr, ptr %34, align 8, !tbaa !81
  %36 = load i32, ptr %4, align 4, !tbaa !14
  %37 = icmp sle i32 %36, 56319
  %38 = select i1 %37, i32 320, i32 0
  %39 = load i32, ptr %4, align 4, !tbaa !14
  %40 = ashr i32 %39, 5
  %41 = add nsw i32 %38, %40
  %42 = sext i32 %41 to i64
  %43 = getelementptr inbounds i16, ptr %35, i64 %42
  %44 = load i16, ptr %43, align 2, !tbaa !82
  %45 = zext i16 %44 to i32
  %46 = shl i32 %45, 2
  %47 = load i32, ptr %4, align 4, !tbaa !14
  %48 = and i32 %47, 31
  %49 = add nsw i32 %46, %48
  br label %98

50:                                               ; preds = %28
  %51 = load i32, ptr %4, align 4, !tbaa !14
  %52 = icmp ugt i32 %51, 1114111
  br i1 %52, label %53, label %54

53:                                               ; preds = %50
  br label %96

54:                                               ; preds = %50
  %55 = load i32, ptr %4, align 4, !tbaa !14
  %56 = getelementptr inbounds nuw %"struct.icu_77::CollationData", ptr %5, i32 0, i32 0
  %57 = load ptr, ptr %56, align 8, !tbaa !76
  %58 = getelementptr inbounds nuw %struct.UTrie2, ptr %57, i32 0, i32 9
  %59 = load i32, ptr %58, align 4, !tbaa !83
  %60 = icmp sge i32 %55, %59
  br i1 %60, label %61, label %66

61:                                               ; preds = %54
  %62 = getelementptr inbounds nuw %"struct.icu_77::CollationData", ptr %5, i32 0, i32 0
  %63 = load ptr, ptr %62, align 8, !tbaa !76
  %64 = getelementptr inbounds nuw %struct.UTrie2, ptr %63, i32 0, i32 10
  %65 = load i32, ptr %64, align 8, !tbaa !84
  br label %94

66:                                               ; preds = %54
  %67 = getelementptr inbounds nuw %"struct.icu_77::CollationData", ptr %5, i32 0, i32 0
  %68 = load ptr, ptr %67, align 8, !tbaa !76
  %69 = getelementptr inbounds nuw %struct.UTrie2, ptr %68, i32 0, i32 0
  %70 = load ptr, ptr %69, align 8, !tbaa !81
  %71 = getelementptr inbounds nuw %"struct.icu_77::CollationData", ptr %5, i32 0, i32 0
  %72 = load ptr, ptr %71, align 8, !tbaa !76
  %73 = getelementptr inbounds nuw %struct.UTrie2, ptr %72, i32 0, i32 0
  %74 = load ptr, ptr %73, align 8, !tbaa !81
  %75 = load i32, ptr %4, align 4, !tbaa !14
  %76 = ashr i32 %75, 11
  %77 = add nsw i32 2080, %76
  %78 = sext i32 %77 to i64
  %79 = getelementptr inbounds i16, ptr %74, i64 %78
  %80 = load i16, ptr %79, align 2, !tbaa !82
  %81 = zext i16 %80 to i32
  %82 = load i32, ptr %4, align 4, !tbaa !14
  %83 = ashr i32 %82, 5
  %84 = and i32 %83, 63
  %85 = add nsw i32 %81, %84
  %86 = sext i32 %85 to i64
  %87 = getelementptr inbounds i16, ptr %70, i64 %86
  %88 = load i16, ptr %87, align 2, !tbaa !82
  %89 = zext i16 %88 to i32
  %90 = shl i32 %89, 2
  %91 = load i32, ptr %4, align 4, !tbaa !14
  %92 = and i32 %91, 31
  %93 = add nsw i32 %90, %92
  br label %94

94:                                               ; preds = %66, %61
  %95 = phi i32 [ %65, %61 ], [ %93, %66 ]
  br label %96

96:                                               ; preds = %94, %53
  %97 = phi i32 [ 128, %53 ], [ %95, %94 ]
  br label %98

98:                                               ; preds = %96, %31
  %99 = phi i32 [ %49, %31 ], [ %97, %96 ]
  br label %100

100:                                              ; preds = %98, %12
  %101 = phi i32 [ %27, %12 ], [ %99, %98 ]
  %102 = sext i32 %101 to i64
  %103 = getelementptr inbounds i32, ptr %9, i64 %102
  %104 = load i32, ptr %103, align 4, !tbaa !14
  ret i32 %104
}

; Function Attrs: mustprogress uwtable
define noundef i32 @_ZNK6icu_7717CollationIterator11getDataCE32Ei(ptr noundef nonnull align 8 dereferenceable(389) %0, i32 noundef %1) unnamed_addr #1 align 2 {
  %3 = alloca ptr, align 8
  %4 = alloca i32, align 4
  store ptr %0, ptr %3, align 8, !tbaa !37
  store i32 %1, ptr %4, align 4, !tbaa !14
  %5 = load ptr, ptr %3, align 8
  %6 = getelementptr inbounds nuw %"class.icu_77::CollationIterator", ptr %5, i32 0, i32 2
  %7 = load ptr, ptr %6, align 8, !tbaa !47
  %8 = load i32, ptr %4, align 4, !tbaa !14
  %9 = call noundef i32 @_ZNK6icu_7713CollationData7getCE32Ei(ptr noundef nonnull align 8 dereferenceable(140) %7, i32 noundef %8)
  ret i32 %9
}