; Function Attrs: mustprogress nofree norecurse nosync nounwind willreturn memory(read, inaccessiblemem: none) uwtable
define noundef i32 @_ZNK6icu_7717CollationIterator11getDataCE32Ei(ptr noundef nonnull readonly align 8 captures(none) dereferenceable(389) %0, i32 noundef %1) unnamed_addr #16 align 2 {
  %3 = getelementptr inbounds nuw i8, ptr %0, i64 16
  %4 = load ptr, ptr %3, align 8, !tbaa !32
  %5 = load ptr, ptr %4, align 8, !tbaa !58
  %6 = getelementptr inbounds nuw i8, ptr %5, i64 16
  %7 = load ptr, ptr %6, align 8, !tbaa !59
  %8 = icmp ult i32 %1, 55296
  br i1 %8, label %9, label %19

9:                                                ; preds = %2
  %10 = load ptr, ptr %5, align 8, !tbaa !63
  %11 = lshr i32 %1, 5
  %12 = zext nneg i32 %11 to i64
  %13 = getelementptr inbounds nuw i16, ptr %10, i64 %12
  %14 = load i16, ptr %13, align 2, !tbaa !64
  %15 = zext i16 %14 to i32
  %16 = shl nuw nsw i32 %15, 2
  %17 = and i32 %1, 31
  %18 = add nuw nsw i32 %16, %17
  br label %_ZNK6icu_7713CollationData7getCE32Ei.exit

19:                                               ; preds = %2
  %20 = icmp ult i32 %1, 65536
  br i1 %20, label %21, label %34

21:                                               ; preds = %19
  %22 = load ptr, ptr %5, align 8, !tbaa !63
  %23 = icmp samesign ult i32 %1, 56320
  %24 = select i1 %23, i32 320, i32 0
  %25 = lshr i32 %1, 5
  %26 = add nuw nsw i32 %24, %25
  %27 = zext nneg i32 %26 to i64
  %28 = getelementptr inbounds nuw i16, ptr %22, i64 %27
  %29 = load i16, ptr %28, align 2, !tbaa !64
  %30 = zext i16 %29 to i32
  %31 = shl nuw nsw i32 %30, 2
  %32 = and i32 %1, 31
  %33 = add nuw nsw i32 %31, %32
  br label %_ZNK6icu_7713CollationData7getCE32Ei.exit

34:                                               ; preds = %19
  %35 = icmp ugt i32 %1, 1114111
  br i1 %35, label %_ZNK6icu_7713CollationData7getCE32Ei.exit, label %36

36:                                               ; preds = %34
  %37 = getelementptr inbounds nuw i8, ptr %5, i64 44
  %38 = load i32, ptr %37, align 4, !tbaa !65
  %.not.i = icmp slt i32 %1, %38
  br i1 %.not.i, label %42, label %39

39:                                               ; preds = %36
  %40 = getelementptr inbounds nuw i8, ptr %5, i64 48
  %41 = load i32, ptr %40, align 8, !tbaa !66
  br label %_ZNK6icu_7713CollationData7getCE32Ei.exit

42:                                               ; preds = %36
  %43 = load ptr, ptr %5, align 8, !tbaa !63
  %44 = lshr i32 %1, 11
  %45 = zext nneg i32 %44 to i64
  %46 = getelementptr inbounds nuw i16, ptr %43, i64 %45
  %47 = getelementptr inbounds nuw i8, ptr %46, i64 4160
  %48 = load i16, ptr %47, align 2, !tbaa !64
  %49 = zext i16 %48 to i32
  %50 = lshr i32 %1, 5
  %51 = and i32 %50, 63
  %52 = add nuw nsw i32 %51, %49
  %53 = zext nneg i32 %52 to i64
  %54 = getelementptr inbounds nuw i16, ptr %43, i64 %53
  %55 = load i16, ptr %54, align 2, !tbaa !64
  %56 = zext i16 %55 to i32
  %57 = shl nuw nsw i32 %56, 2
  %58 = and i32 %1, 31
  %59 = add nuw nsw i32 %57, %58
  br label %_ZNK6icu_7713CollationData7getCE32Ei.exit

_ZNK6icu_7713CollationData7getCE32Ei.exit:        ; preds = %9, %21, %34, %39, %42
  %60 = phi i32 [ %18, %9 ], [ %33, %21 ], [ 128, %34 ], [ %41, %39 ], [ %59, %42 ]
  %61 = sext i32 %60 to i64
  %62 = getelementptr inbounds i32, ptr %7, i64 %61
  %63 = load i32, ptr %62, align 4, !tbaa !12
  ret i32 %63
}